target datalayout = "e-m:e-p270:32:32-p271:32:32-p272:64:64-i64:64-i128:128-f80:128-n8:16:32:64-S128"
target triple = "x86_64-pc-linux-gnu"

; Function Attrs: nounwind uwtable
define internal i32 @pss_params_fromdata(ptr noundef %0, ptr noundef %1, ptr noundef %2, i32 noundef %3, ptr noundef %4) #0 {
  %6 = alloca i32, align 4
  %7 = alloca ptr, align 8
  %8 = alloca ptr, align 8
  %9 = alloca ptr, align 8
  %10 = alloca i32, align 4
  %11 = alloca ptr, align 8
  store ptr %0, ptr %7, align 8, !tbaa !33
  store ptr %1, ptr %8, align 8, !tbaa !41
  store ptr %2, ptr %9, align 8, !tbaa !13
  store i32 %3, ptr %10, align 4, !tbaa !11
  store ptr %4, ptr %11, align 8, !tbaa !7
  %12 = load ptr, ptr %7, align 8, !tbaa !33
  %13 = load ptr, ptr %8, align 8, !tbaa !41
  %14 = load ptr, ptr %9, align 8, !tbaa !13
  %15 = load ptr, ptr %11, align 8, !tbaa !7
  %16 = call i32 @ossl_rsa_pss_params_30_fromdata(ptr noundef %12, ptr noundef %13, ptr noundef %14, ptr noundef %15)
  %17 = icmp ne i32 %16, 0
  br i1 %17, label %19, label %18

18:                                               ; preds = %5
  store i32 0, ptr %6, align 4
  br label %28

19:                                               ; preds = %5
  %20 = load i32, ptr %10, align 4, !tbaa !11
  %21 = icmp ne i32 %20, 4096
  br i1 %21, label %22, label %27

22:                                               ; preds = %19
  %23 = load ptr, ptr %7, align 8, !tbaa !33
  %24 = call i32 @ossl_rsa_pss_params_30_is_unrestricted(ptr noundef %23)
  %25 = icmp ne i32 %24, 0
  br i1 %25, label %27, label %26

26:                                               ; preds = %22
  store i32 0, ptr %6, align 4
  br label %28

27:                                               ; preds = %22, %19
  store i32 1, ptr %6, align 4
  br label %28

28:                                               ; preds = %27, %26, %18
  %29 = load i32, ptr %6, align 4
  ret i32 %29
}

; Function Attrs: nounwind uwtable
define internal i32 @rsa_import(ptr noundef %0, i32 noundef %1, ptr noundef %2) #0 {
  %4 = alloca i32, align 4
  %5 = alloca ptr, align 8
  %6 = alloca i32, align 4
  %7 = alloca ptr, align 8
  %8 = alloca ptr, align 8
  %9 = alloca i32, align 4
  %10 = alloca i32, align 4
  %11 = alloca i32, align 4
  %12 = alloca i32, align 4
  %13 = alloca i32, align 4
  store ptr %0, ptr %5, align 8, !tbaa !3
  store i32 %1, ptr %6, align 4, !tbaa !11
  store ptr %2, ptr %7, align 8, !tbaa !13
  call void @llvm.lifetime.start.p0(i64 8, ptr %8) #6
  %14 = load ptr, ptr %5, align 8, !tbaa !3
  store ptr %14, ptr %8, align 8, !tbaa !9
  call void @llvm.lifetime.start.p0(i64 4, ptr %9) #6
  call void @llvm.lifetime.start.p0(i64 4, ptr %10) #6
  store i32 1, ptr %10, align 4, !tbaa !11
  call void @llvm.lifetime.start.p0(i64 4, ptr %11) #6
  store i32 0, ptr %11, align 4, !tbaa !11
  %15 = call i32 @ossl_prov_is_running()
  %16 = icmp ne i32 %15, 0
  br i1 %16, label %17, label %20

17:                                               ; preds = %3
  %18 = load ptr, ptr %8, align 8, !tbaa !9
  %19 = icmp eq ptr %18, null
  br i1 %19, label %20, label %21

20:                                               ; preds = %17, %3
  store i32 0, ptr %4, align 4
  store i32 1, ptr %12, align 4
  br label %69

21:                                               ; preds = %17
  %22 = load i32, ptr %6, align 4, !tbaa !11
  %23 = and i32 %22, 131
  %24 = icmp eq i32 %23, 0
  br i1 %24, label %25, label %26

25:                                               ; preds = %21
  store i32 0, ptr %4, align 4
  store i32 1, ptr %12, align 4
  br label %69

26:                                               ; preds = %21
  %27 = load ptr, ptr %8, align 8, !tbaa !9
  %28 = call i32 @RSA_test_flags(ptr noundef %27, i32 noundef 61440)
  store i32 %28, ptr %9, align 4, !tbaa !11
  %29 = load i32, ptr %6, align 4, !tbaa !11
  %30 = and i32 %29, 128
  %31 = icmp ne i32 %30, 0
  br i1 %31, label %32, label %47

32:                                               ; preds = %26
  %33 = load i32, ptr %10, align 4, !tbaa !11
  %34 = icmp ne i32 %33, 0
  br i1 %34, label %35, label %44

35:                                               ; preds = %32
  %36 = load ptr, ptr %8, align 8, !tbaa !9
  %37 = call ptr @ossl_rsa_get0_pss_params_30(ptr noundef %36)
  %38 = load ptr, ptr %7, align 8, !tbaa !13
  %39 = load i32, ptr %9, align 4, !tbaa !11
  %40 = load ptr, ptr %8, align 8, !tbaa !9
  %41 = call ptr @ossl_rsa_get0_libctx(ptr noundef %40)
  %42 = call i32 @pss_params_fromdata(ptr noundef %37, ptr noundef %11, ptr noundef %38, i32 noundef %39, ptr noundef %41)
  %43 = icmp ne i32 %42, 0
  br label %44

44:                                               ; preds = %35, %32
  %45 = phi i1 [ false, %32 ], [ %43, %35 ]
  %46 = zext i1 %45 to i32
  store i32 %46, ptr %10, align 4, !tbaa !11
  br label %47

47:                                               ; preds = %44, %26
  %48 = load i32, ptr %6, align 4, !tbaa !11
  %49 = and i32 %48, 3
  %50 = icmp ne i32 %49, 0
  br i1 %50, label %51, label %67

51:                                               ; preds = %47
  call void @llvm.lifetime.start.p0(i64 4, ptr %13) #6
  %52 = load i32, ptr %6, align 4, !tbaa !11
  %53 = and i32 %52, 1
  %54 = icmp ne i32 %53, 0
  %55 = select i1 %54, i32 1, i32 0
  store i32 %55, ptr %13, align 4, !tbaa !11
  %56 = load i32, ptr %10, align 4, !tbaa !11
  %57 = icmp ne i32 %56, 0
  br i1 %57, label %58, label %64

58:                                               ; preds = %51
  %59 = load ptr, ptr %8, align 8, !tbaa !9
  %60 = load ptr, ptr %7, align 8, !tbaa !13
  %61 = load i32, ptr %13, align 4, !tbaa !11
  %62 = call i32 @ossl_rsa_fromdata(ptr noundef %59, ptr noundef %60, i32 noundef %61)
  %63 = icmp ne i32 %62, 0
  br label %64

64:                                               ; preds = %58, %51
  %65 = phi i1 [ false, %51 ], [ %63, %58 ]
  %66 = zext i1 %65 to i32
  store i32 %66, ptr %10, align 4, !tbaa !11
  call void @llvm.lifetime.end.p0(i64 4, ptr %13) #6
  br label %67

67:                                               ; preds = %64, %47
  %68 = load i32, ptr %10, align 4, !tbaa !11
  store i32 %68, ptr %4, align 4
  store i32 1, ptr %12, align 4
  br label %69

69:                                               ; preds = %67, %25, %20
  call void @llvm.lifetime.end.p0(i64 4, ptr %11) #6
  call void @llvm.lifetime.end.p0(i64 4, ptr %10) #6
  call void @llvm.lifetime.end.p0(i64 4, ptr %9) #6
  call void @llvm.lifetime.end.p0(i64 8, ptr %8) #6
  %70 = load i32, ptr %4, align 4
  ret i32 %70
}