; Function Attrs: nounwind uwtable
define internal range(i32 0, 2) i32 @rsa_import(ptr noundef %0, i32 noundef %1, ptr noundef %2) #0 {
  %4 = alloca i32, align 4
  call void @llvm.lifetime.start.p0(i64 4, ptr nonnull %4) #6
  store i32 0, ptr %4, align 4, !tbaa !25
  %5 = tail call i32 @ossl_prov_is_running() #6
  %6 = icmp eq i32 %5, 0
  %7 = icmp eq ptr %0, null
  %or.cond = or i1 %7, %6
  %8 = and i32 %1, 131
  %9 = icmp eq i32 %8, 0
  %or.cond24 = or i1 %9, %or.cond
  br i1 %or.cond24, label %pss_params_fromdata.exit.thread, label %10

10:                                               ; preds = %3
  %11 = tail call i32 @RSA_test_flags(ptr noundef nonnull %0, i32 noundef 61440) #6
  %12 = and i32 %1, 128
  %.not = icmp eq i32 %12, 0
  br i1 %.not, label %pss_params_fromdata.exit, label %13

13:                                               ; preds = %10
  %14 = tail call ptr @ossl_rsa_get0_pss_params_30(ptr noundef nonnull %0) #6
  %15 = tail call ptr @ossl_rsa_get0_libctx(ptr noundef nonnull %0) #6
  %16 = call i32 @ossl_rsa_pss_params_30_fromdata(ptr noundef %14, ptr noundef nonnull %4, ptr noundef %2, ptr noundef %15) #6
  %.not.i = icmp eq i32 %16, 0
  br i1 %.not.i, label %pss_params_fromdata.exit.thread, label %17

17:                                               ; preds = %13
  %.not6.i = icmp eq i32 %11, 4096
  br i1 %.not6.i, label %pss_params_fromdata.exit, label %18

18:                                               ; preds = %17
  %19 = call i32 @ossl_rsa_pss_params_30_is_unrestricted(ptr noundef %14) #6
  %.not7.i = icmp eq i32 %19, 0
  br i1 %.not7.i, label %pss_params_fromdata.exit.thread, label %pss_params_fromdata.exit

pss_params_fromdata.exit:                         ; preds = %17, %18, %10
  %20 = and i32 %1, 3
  %.not20 = icmp eq i32 %20, 0
  br i1 %.not20, label %pss_params_fromdata.exit.thread, label %21

21:                                               ; preds = %pss_params_fromdata.exit
  %22 = and i32 %1, 1
  %23 = call i32 @ossl_rsa_fromdata(ptr noundef nonnull %0, ptr noundef %2, i32 noundef %22) #6
  %24 = icmp ne i32 %23, 0
  %25 = zext i1 %24 to i32
  br label %pss_params_fromdata.exit.thread

pss_params_fromdata.exit.thread:                  ; preds = %18, %13, %pss_params_fromdata.exit, %21, %3
  %.0.shrunk = phi i32 [ 0, %3 ], [ 1, %pss_params_fromdata.exit ], [ %25, %21 ], [ 0, %13 ], [ 0, %18 ]
  call void @llvm.lifetime.end.p0(i64 4, ptr nonnull %4) #6
  ret i32 %.0.shrunk
}